; ModuleID = '7/260.c'
source_filename = "7/260.c"
target datalayout = "e-m:e-p270:32:32-p271:32:32-p272:64:64-i64:64-f80:128-n8:16:32:64-S128"
target triple = "x86_64-pc-linux-gnu"

; Function Attrs: noinline nounwind uwtable
define dso_local i32 @main() #0 {
  %1 = alloca i32, align 4
  %2 = alloca [514 x i8], align 16
  %3 = alloca [257 x i8], align 16
  %4 = alloca [257 x i8], align 16
  %5 = alloca i32, align 4
  %6 = alloca i32, align 4
  %7 = alloca i32, align 4
  %8 = alloca i32, align 4
  %9 = alloca i32, align 4
  store i32 0, i32* %1, align 4
  store i32 0, i32* %8, align 4
  store i32 0, i32* %9, align 4
  %10 = getelementptr inbounds [514 x i8], [514 x i8]* %2, i64 0, i64 0
  %11 = call i32 (i8*, ...) bitcast (i32 (...)* @gets to i32 (i8*, ...)*)(i8* %10)
  %12 = getelementptr inbounds [257 x i8], [257 x i8]* %3, i64 0, i64 0
  %13 = call i32 (i8*, ...) bitcast (i32 (...)* @gets to i32 (i8*, ...)*)(i8* %12)
  %14 = getelementptr inbounds [257 x i8], [257 x i8]* %4, i64 0, i64 0
  %15 = call i32 (i8*, ...) bitcast (i32 (...)* @gets to i32 (i8*, ...)*)(i8* %14)
  store i32 0, i32* %5, align 4
  br label %16

16:                                               ; preds = %74, %0
  %17 = load i32, i32* %5, align 4
  %18 = sext i32 %17 to i64
  %19 = getelementptr inbounds [514 x i8], [514 x i8]* %2, i64 0, i64 %18
  %20 = load i8, i8* %19, align 1
  %21 = sext i8 %20 to i32
  %22 = icmp ne i32 %21, 0
  br i1 %22, label %23, label %77

23:                                               ; preds = %16
  %24 = load i32, i32* %5, align 4
  %25 = sext i32 %24 to i64
  %26 = getelementptr inbounds [514 x i8], [514 x i8]* %2, i64 0, i64 %25
  %27 = load i8, i8* %26, align 1
  %28 = sext i8 %27 to i32
  %29 = getelementptr inbounds [257 x i8], [257 x i8]* %3, i64 0, i64 0
  %30 = load i8, i8* %29, align 16
  %31 = sext i8 %30 to i32
  %32 = icmp eq i32 %28, %31
  br i1 %32, label %33, label %73

33:                                               ; preds = %23
  %34 = load i32, i32* %5, align 4
  %35 = add nsw i32 %34, 1
  store i32 %35, i32* %6, align 4
  store i32 1, i32* %7, align 4
  br label %36

36:                                               ; preds = %57, %33
  %37 = load i32, i32* %7, align 4
  %38 = sext i32 %37 to i64
  %39 = getelementptr inbounds [257 x i8], [257 x i8]* %3, i64 0, i64 %38
  %40 = load i8, i8* %39, align 1
  %41 = sext i8 %40 to i32
  %42 = icmp ne i32 %41, 0
  br i1 %42, label %43, label %62

43:                                               ; preds = %36
  %44 = load i32, i32* %6, align 4
  %45 = sext i32 %44 to i64
  %46 = getelementptr inbounds [514 x i8], [514 x i8]* %2, i64 0, i64 %45
  %47 = load i8, i8* %46, align 1
  %48 = sext i8 %47 to i32
  %49 = load i32, i32* %7, align 4
  %50 = sext i32 %49 to i64
  %51 = getelementptr inbounds [257 x i8], [257 x i8]* %3, i64 0, i64 %50
  %52 = load i8, i8* %51, align 1
  %53 = sext i8 %52 to i32
  %54 = icmp ne i32 %48, %53
  br i1 %54, label %55, label %56

55:                                               ; preds = %43
  br label %62

56:                                               ; preds = %43
  br label %57

57:                                               ; preds = %56
  %58 = load i32, i32* %6, align 4
  %59 = add nsw i32 %58, 1
  store i32 %59, i32* %6, align 4
  %60 = load i32, i32* %7, align 4
  %61 = add nsw i32 %60, 1
  store i32 %61, i32* %7, align 4
  br label %36

62:                                               ; preds = %55, %36
  %63 = load i32, i32* %7, align 4
  %64 = sext i32 %63 to i64
  %65 = getelementptr inbounds [257 x i8], [257 x i8]* %3, i64 0, i64 %64
  %66 = load i8, i8* %65, align 1
  %67 = sext i8 %66 to i32
  %68 = icmp eq i32 %67, 0
  br i1 %68, label %69, label %72

69:                                               ; preds = %62
  %70 = load i32, i32* %5, align 4
  store i32 %70, i32* %8, align 4
  %71 = load i32, i32* %6, align 4
  store i32 %71, i32* %9, align 4
  br label %77

72:                                               ; preds = %62
  br label %73

73:                                               ; preds = %72, %23
  br label %74

74:                                               ; preds = %73
  %75 = load i32, i32* %5, align 4
  %76 = add nsw i32 %75, 1
  store i32 %76, i32* %5, align 4
  br label %16

77:                                               ; preds = %69, %16
  %78 = load i32, i32* %8, align 4
  %79 = load i32, i32* %9, align 4
  %80 = icmp slt i32 %78, %79
  br i1 %80, label %81, label %129

81:                                               ; preds = %77
  %82 = load i32, i32* %8, align 4
  store i32 %82, i32* %5, align 4
  store i32 0, i32* %7, align 4
  br label %83

83:                                               ; preds = %98, %81
  %84 = load i32, i32* %7, align 4
  %85 = sext i32 %84 to i64
  %86 = getelementptr inbounds [257 x i8], [257 x i8]* %4, i64 0, i64 %85
  %87 = load i8, i8* %86, align 1
  %88 = sext i8 %87 to i32
  %89 = icmp ne i32 %88, 0
  br i1 %89, label %90, label %103

90:                                               ; preds = %83
  %91 = load i32, i32* %7, align 4
  %92 = sext i32 %91 to i64
  %93 = getelementptr inbounds [257 x i8], [257 x i8]* %4, i64 0, i64 %92
  %94 = load i8, i8* %93, align 1
  %95 = load i32, i32* %5, align 4
  %96 = sext i32 %95 to i64
  %97 = getelementptr inbounds [514 x i8], [514 x i8]* %2, i64 0, i64 %96
  store i8 %94, i8* %97, align 1
  br label %98

98:                                               ; preds = %90
  %99 = load i32, i32* %5, align 4
  %100 = add nsw i32 %99, 1
  store i32 %100, i32* %5, align 4
  %101 = load i32, i32* %7, align 4
  %102 = add nsw i32 %101, 1
  store i32 %102, i32* %7, align 4
  br label %83

103:                                              ; preds = %83
  %104 = load i32, i32* %9, align 4
  store i32 %104, i32* %6, align 4
  br label %105

105:                                              ; preds = %120, %103
  %106 = load i32, i32* %6, align 4
  %107 = sext i32 %106 to i64
  %108 = getelementptr inbounds [514 x i8], [514 x i8]* %2, i64 0, i64 %107
  %109 = load i8, i8* %108, align 1
  %110 = sext i8 %109 to i32
  %111 = icmp ne i32 %110, 0
  br i1 %111, label %112, label %125

112:                                              ; preds = %105
  %113 = load i32, i32* %6, align 4
  %114 = sext i32 %113 to i64
  %115 = getelementptr inbounds [514 x i8], [514 x i8]* %2, i64 0, i64 %114
  %116 = load i8, i8* %115, align 1
  %117 = load i32, i32* %5, align 4
  %118 = sext i32 %117 to i64
  %119 = getelementptr inbounds [514 x i8], [514 x i8]* %2, i64 0, i64 %118
  store i8 %116, i8* %119, align 1
  br label %120

120:                                              ; preds = %112
  %121 = load i32, i32* %5, align 4
  %122 = add nsw i32 %121, 1
  store i32 %122, i32* %5, align 4
  %123 = load i32, i32* %6, align 4
  %124 = add nsw i32 %123, 1
  store i32 %124, i32* %6, align 4
  br label %105

125:                                              ; preds = %105
  %126 = load i32, i32* %5, align 4
  %127 = sext i32 %126 to i64
  %128 = getelementptr inbounds [514 x i8], [514 x i8]* %2, i64 0, i64 %127
  store i8 0, i8* %128, align 1
  br label %129

129:                                              ; preds = %125, %77
  %130 = getelementptr inbounds [514 x i8], [514 x i8]* %2, i64 0, i64 0
  %131 = call i32 (i8*, ...) @printf(i8* %130)
  ret i32 0
}

declare dso_local i32 @gets(...) #1

declare dso_local i32 @printf(i8*, ...) #1


!llvm.module.flags = !{!0}
!llvm.ident = !{!1}

!0 = !{i32 1, !"wchar_size", i32 4}
!1 = !{!"clang version 10.0.0-4ubuntu1 "}
